target datalayout = "e-m:e-p270:32:32-p271:32:32-p272:64:64-i64:64-i128:128-f80:128-n8:16:32:64-S128"
target triple = "x86_64-pc-linux-gnu"

; Function Attrs: nounwind uwtable
define internal i32 @db_setuservalue(ptr noundef %0) #0 {
  %2 = alloca ptr, align 8
  %3 = alloca i32, align 4
  store ptr %0, ptr %2, align 8, !tbaa !4
  call void @llvm.lifetime.start.p0(i64 4, ptr %3) #6
  %4 = load ptr, ptr %2, align 8, !tbaa !4
  %5 = call i64 @luaL_optinteger(ptr noundef %4, i32 noundef 3, i64 noundef 1)
  %6 = trunc i64 %5 to i32
  store i32 %6, ptr %3, align 4, !tbaa !11
  %7 = load ptr, ptr %2, align 8, !tbaa !4
  call void @luaL_checktype(ptr noundef %7, i32 noundef 1, i32 noundef 7)
  %8 = load ptr, ptr %2, align 8, !tbaa !4
  call void @luaL_checkany(ptr noundef %8, i32 noundef 2)
  %9 = load ptr, ptr %2, align 8, !tbaa !4
  call void @lua_settop(ptr noundef %9, i32 noundef 2)
  %10 = load ptr, ptr %2, align 8, !tbaa !4
  %11 = load i32, ptr %3, align 4, !tbaa !11
  %12 = call i32 @lua_setiuservalue(ptr noundef %10, i32 noundef 1, i32 noundef %11)
  %13 = icmp ne i32 %12, 0
  br i1 %13, label %16, label %14

14:                                               ; preds = %1
  %15 = load ptr, ptr %2, align 8, !tbaa !4
  call void @lua_pushnil(ptr noundef %15)
  br label %16

16:                                               ; preds = %14, %1
  call void @llvm.lifetime.end.p0(i64 4, ptr %3) #6
  ret i32 1
}