; Function Attrs: nounwind uwtable
define internal noundef i32 @db_setuservalue(ptr noundef %0) #0 {
  %2 = tail call i64 @luaL_optinteger(ptr noundef %0, i32 noundef 3, i64 noundef 1) #8
  %3 = trunc i64 %2 to i32
  tail call void @luaL_checktype(ptr noundef %0, i32 noundef 1, i32 noundef 7) #8
  tail call void @luaL_checkany(ptr noundef %0, i32 noundef 2) #8
  tail call void @lua_settop(ptr noundef %0, i32 noundef 2) #8
  %4 = tail call i32 @lua_setiuservalue(ptr noundef %0, i32 noundef 1, i32 noundef %3) #8
  %.not = icmp eq i32 %4, 0
  br i1 %.not, label %5, label %6

5:                                                ; preds = %1
  tail call void @lua_pushnil(ptr noundef %0) #8
  br label %6

6:                                                ; preds = %5, %1
  ret i32 1
}